target datalayout = "e-m:e-p270:32:32-p271:32:32-p272:64:64-i64:64-i128:128-f80:128-n8:16:32:64-S128"
target triple = "x86_64-pc-linux-gnu"

%struct.anon.4 = type { %struct._Unwind_Exception, ptr, [8 x i8] }
%struct._Unwind_Exception = type { i64, ptr, i64, i64 }
%struct.GCRef = type { i64 }
%struct.lua_State = type { %struct.GCRef, i8, i8, i8, i8, %struct.MRef, %struct.GCRef, ptr, ptr, %struct.MRef, %struct.MRef, %struct.GCRef, %struct.GCRef, ptr, i32 }
%struct.MRef = type { i64 }
%union.TValue = type { i64 }
%struct.global_State = type { ptr, ptr, %struct.GCState, %struct.GCstr, i8, i8, i8, i8, %struct.StrInternState, i32, %struct.GCRef, %struct.SBuf, %union.TValue, %union.TValue, %struct.Node, %union.TValue, %struct.GCupval, i32, i32, ptr, ptr, ptr, i32, i32, %struct.GCRef, %struct.MRef, %struct.MRef, %struct.PRNGState, [39 x %struct.GCRef] }
%struct.GCState = type { i64, i64, i8, i8, i8, i8, i32, %struct.GCRef, %struct.MRef, %struct.GCRef, %struct.GCRef, %struct.GCRef, %struct.GCRef, i64, i64, i32, i32, %struct.MRef }
%struct.GCstr = type { %struct.GCRef, i8, i8, i8, i8, i32, i32, i32 }
%struct.StrInternState = type { ptr, i32, i32, i32, i8, i8, i8, i8, i64 }
%struct.SBuf = type { ptr, ptr, ptr, %struct.MRef }
%struct.Node = type { %union.TValue, %union.TValue, %struct.MRef }
%struct.GCupval = type { %struct.GCRef, i8, i8, i8, i8, %union.anon, %struct.MRef, i32 }
%union.anon = type { %struct.anon.1 }
%struct.anon.1 = type { %struct.GCRef, %struct.GCRef }
%struct.PRNGState = type { [4 x i64] }
%struct.GG_State = type { %struct.lua_State, %struct.global_State, %struct.jit_State, [64 x i16], [243 x ptr], [57 x i32] }
%struct.jit_State = type { %struct.GCtrace, ptr, ptr, ptr, ptr, ptr, ptr, i32, i32, i32, i8, i8, %struct.IRType1, i8, %struct.FoldState, ptr, i32, i32, i32, i32, i32, i32, i32, [1 x i32], [5 x %union.TValue], [3 x %union.TValue], ptr, i32, i32, i32, i32, ptr, ptr, i32, i32, i8, ptr, i32, i32, i16, [101 x i16], [258 x i32], [15 x i32], [16 x ptr], [64 x %struct.HotPenalty], i32, [16 x %struct.BPropEntry], i32, %struct.ScEvEntry, ptr, i32, i32, i32, ptr, i32, i32, ptr, ptr, ptr, i64, i64, %union.TValue, ptr, i32, i32 }
%struct.GCtrace = type { %struct.GCRef, i8, i8, i16, i32, i32, %struct.GCRef, ptr, i32, i32, ptr, ptr, %struct.GCRef, %struct.MRef, i32, i32, ptr, i32, i16, i16, i16, i16, i16, i16, i16, i8, i8, i8, i8 }
%struct.IRType1 = type { i8 }
%struct.FoldState = type { %union.IRIns, [2 x %union.IRIns], [2 x %union.IRIns] }
%union.IRIns = type { %struct.GCRef }
%struct.HotPenalty = type { %struct.MRef, i16, i16 }
%struct.BPropEntry = type { i16, i16, i32 }
%struct.ScEvEntry = type { %struct.MRef, i16, i16, i16, i16, %struct.IRType1, i8 }

@static_uex = internal thread_local global %struct.anon.4 zeroinitializer, align 16

; Function Attrs: nounwind uwtable
define internal void @err_raise_ext(ptr noundef %0, i32 noundef %1) #0 {
  %3 = alloca ptr, align 8
  %4 = alloca i32, align 4
  store ptr %0, ptr %3, align 8, !tbaa !42
  store i32 %1, ptr %4, align 4, !tbaa !4
  %5 = call align 16 ptr @llvm.threadlocal.address.p0(ptr align 16 @static_uex)
  call void @llvm.memset.p0.i64(ptr align 16 %5, i8 0, i64 48, i1 false)
  %6 = load i32, ptr %4, align 4, !tbaa !4
  %7 = sext i32 %6 to i64
  %8 = or i64 5500374307216568832, %7
  %9 = call align 16 ptr @llvm.threadlocal.address.p0(ptr align 16 @static_uex)
  %10 = getelementptr inbounds nuw %struct.anon.4, ptr %9, i32 0, i32 0
  %11 = getelementptr inbounds nuw %struct._Unwind_Exception, ptr %10, i32 0, i32 0
  store i64 %8, ptr %11, align 16, !tbaa !66
  %12 = load ptr, ptr %3, align 8, !tbaa !42
  %13 = call align 16 ptr @llvm.threadlocal.address.p0(ptr align 16 @static_uex)
  %14 = getelementptr inbounds nuw %struct.anon.4, ptr %13, i32 0, i32 1
  store ptr %12, ptr %14, align 16, !tbaa !69
  %15 = call align 16 ptr @llvm.threadlocal.address.p0(ptr align 16 @static_uex)
  %16 = getelementptr inbounds nuw %struct.anon.4, ptr %15, i32 0, i32 0
  %17 = call i32 @_Unwind_RaiseException(ptr noundef %16)
  ret void
}

; Function Attrs: noinline noreturn nounwind uwtable
define hidden void @lj_err_throw(ptr noundef %0, i32 noundef %1) #6 {
  %3 = alloca ptr, align 8
  %4 = alloca i32, align 4
  %5 = alloca ptr, align 8
  store ptr %0, ptr %3, align 8, !tbaa !18
  store i32 %1, ptr %4, align 4, !tbaa !4
  call void @llvm.lifetime.start.p0(i64 8, ptr %5) #15
  %6 = load ptr, ptr %3, align 8, !tbaa !18
  %7 = getelementptr inbounds nuw %struct.lua_State, ptr %6, i32 0, i32 5
  %8 = getelementptr inbounds nuw %struct.MRef, ptr %7, i32 0, i32 0
  %9 = load i64, ptr %8, align 8, !tbaa !29
  %10 = inttoptr i64 %9 to ptr
  store ptr %10, ptr %5, align 8, !tbaa !42
  %11 = load ptr, ptr %5, align 8, !tbaa !42
  %12 = getelementptr inbounds i8, ptr %11, i64 -96
  %13 = getelementptr inbounds nuw %struct.GG_State, ptr %12, i32 0, i32 2
  %14 = getelementptr inbounds nuw %struct.jit_State, ptr %13, i32 0, i32 17
  %15 = load i32, ptr %14, align 4, !tbaa !65
  %16 = and i32 %15, -17
  store i32 %16, ptr %14, align 4, !tbaa !65
  %17 = load ptr, ptr %3, align 8, !tbaa !18
  %18 = getelementptr inbounds nuw %struct.lua_State, ptr %17, i32 0, i32 4
  store i8 0, ptr %18, align 1, !tbaa !41
  %19 = load ptr, ptr %5, align 8, !tbaa !42
  %20 = load i32, ptr %4, align 4, !tbaa !4
  call void @err_raise_ext(ptr noundef %19, i32 noundef %20)
  %21 = load ptr, ptr %3, align 8, !tbaa !18
  %22 = getelementptr inbounds nuw %struct.lua_State, ptr %21, i32 0, i32 5
  %23 = getelementptr inbounds nuw %struct.MRef, ptr %22, i32 0, i32 0
  %24 = load i64, ptr %23, align 8, !tbaa !29
  %25 = inttoptr i64 %24 to ptr
  %26 = getelementptr inbounds nuw %struct.global_State, ptr %25, i32 0, i32 21
  %27 = load ptr, ptr %26, align 8, !tbaa !47
  %28 = icmp ne ptr %27, null
  br i1 %28, label %29, label %39

29:                                               ; preds = %2
  %30 = load ptr, ptr %3, align 8, !tbaa !18
  %31 = getelementptr inbounds nuw %struct.lua_State, ptr %30, i32 0, i32 5
  %32 = getelementptr inbounds nuw %struct.MRef, ptr %31, i32 0, i32 0
  %33 = load i64, ptr %32, align 8, !tbaa !29
  %34 = inttoptr i64 %33 to ptr
  %35 = getelementptr inbounds nuw %struct.global_State, ptr %34, i32 0, i32 21
  %36 = load ptr, ptr %35, align 8, !tbaa !47
  %37 = load ptr, ptr %3, align 8, !tbaa !18
  %38 = call i32 %36(ptr noundef %37)
  br label %39

39:                                               ; preds = %29, %2
  call void @exit(i32 noundef 1) #16
  unreachable
}