; Function Attrs: noinline noreturn nounwind uwtable
define hidden void @lj_err_throw(ptr noundef initializes((11, 12)) %0, i32 noundef %1) local_unnamed_addr #5 {
  %3 = getelementptr inbounds nuw i8, ptr %0, i64 16
  %4 = load i64, ptr %3, align 8, !tbaa !21
  %5 = inttoptr i64 %4 to ptr
  %6 = getelementptr inbounds nuw i8, ptr %5, i64 972
  %7 = load i32, ptr %6, align 4, !tbaa !54
  %8 = and i32 %7, -17
  store i32 %8, ptr %6, align 4, !tbaa !54
  %9 = getelementptr inbounds nuw i8, ptr %0, i64 11
  store i8 0, ptr %9, align 1, !tbaa !33
  %10 = tail call align 16 ptr @llvm.threadlocal.address.p0(ptr align 16 @static_uex)
  tail call void @llvm.memset.p0.i64(ptr noundef nonnull align 16 dereferenceable(48) %10, i8 0, i64 48, i1 false)
  %11 = sext i32 %1 to i64
  %12 = or i64 %11, 5500374307216568832
  store i64 %12, ptr %10, align 16, !tbaa !55
  %13 = getelementptr inbounds nuw i8, ptr %10, i64 32
  store ptr %5, ptr %13, align 16, !tbaa !58
  %14 = tail call i32 @_Unwind_RaiseException(ptr noundef nonnull %10) #15
  %15 = load i64, ptr %3, align 8, !tbaa !21
  %16 = inttoptr i64 %15 to ptr
  %17 = getelementptr inbounds nuw i8, ptr %16, i64 352
  %18 = load ptr, ptr %17, align 8, !tbaa !35
  %.not = icmp eq ptr %18, null
  br i1 %.not, label %21, label %19

19:                                               ; preds = %2
  %20 = tail call i32 %18(ptr noundef nonnull %0) #15
  br label %21

21:                                               ; preds = %19, %2
  tail call void @exit(i32 noundef 1) #16
  unreachable
}